; Function Attrs: mustprogress uwtable
define void @_ZN4cvc56parser15ParserExceptionC2ERKNSt7__cxx1112basic_stringIcSt11char_traitsIcESaIcEEES9_mm(ptr noundef nonnull align 8 dereferenceable(88) %this, ptr noundef nonnull align 8 dereferenceable(32) %msg, ptr noundef nonnull align 8 dereferenceable(32) %filename, i64 noundef %line, i64 noundef %column) unnamed_addr #3 align 2 personality ptr @__gxx_personality_v0 {
entry:
  store ptr getelementptr inbounds ({ [6 x ptr] }, ptr @_ZTVN4cvc516CVC5ApiExceptionE, i64 0, i32 0, i64 2), ptr %this, align 8
  %d_msg.i = getelementptr inbounds i8, ptr %this, i64 8
  invoke void @_ZNSt7__cxx1112basic_stringIcSt11char_traitsIcESaIcEEC1ERKS4_(ptr noundef nonnull align 8 dereferenceable(32) %d_msg.i, ptr noundef nonnull align 8 dereferenceable(32) %msg)
          to label %_ZN4cvc516CVC5ApiExceptionC2ERKNSt7__cxx1112basic_stringIcSt11char_traitsIcESaIcEEE.exit unwind label %lpad.i

common.resume:                                    ; preds = %lpad, %lpad.i
  %common.resume.op = phi { ptr, i32 } [ %0, %lpad.i ], [ %1, %lpad ]
  tail call void @_ZNSt9exceptionD2Ev(ptr noundef nonnull align 8 dereferenceable(8) %this) #22
  resume { ptr, i32 } %common.resume.op

lpad.i:                                           ; preds = %entry
  %0 = landingpad { ptr, i32 }
          cleanup
  br label %common.resume

_ZN4cvc516CVC5ApiExceptionC2ERKNSt7__cxx1112basic_stringIcSt11char_traitsIcESaIcEEE.exit: ; preds = %entry
  store ptr getelementptr inbounds ({ [6 x ptr] }, ptr @_ZTVN4cvc56parser15ParserExceptionE, i64 0, i32 0, i64 2), ptr %this, align 8
  %d_filename = getelementptr inbounds i8, ptr %this, i64 40
  invoke void @_ZNSt7__cxx1112basic_stringIcSt11char_traitsIcESaIcEEC1ERKS4_(ptr noundef nonnull align 8 dereferenceable(32) %d_filename, ptr noundef nonnull align 8 dereferenceable(32) %filename)
          to label %invoke.cont unwind label %lpad

invoke.cont:                                      ; preds = %_ZN4cvc516CVC5ApiExceptionC2ERKNSt7__cxx1112basic_stringIcSt11char_traitsIcESaIcEEE.exit
  %d_line = getelementptr inbounds i8, ptr %this, i64 72
  store i64 %line, ptr %d_line, align 8
  %d_column = getelementptr inbounds i8, ptr %this, i64 80
  store i64 %column, ptr %d_column, align 8
  ret void

lpad:                                             ; preds = %_ZN4cvc516CVC5ApiExceptionC2ERKNSt7__cxx1112basic_stringIcSt11char_traitsIcESaIcEEE.exit
  %1 = landingpad { ptr, i32 }
          cleanup
  store ptr getelementptr inbounds ({ [6 x ptr] }, ptr @_ZTVN4cvc516CVC5ApiExceptionE, i64 0, i32 0, i64 2), ptr %this, align 8
  tail call void @_ZNSt7__cxx1112basic_stringIcSt11char_traitsIcESaIcEED1Ev(ptr noundef nonnull align 8 dereferenceable(32) %d_msg.i) #22
  br label %common.resume
}